target datalayout = "e-m:e-p270:32:32-p271:32:32-p272:64:64-i64:64-i128:128-f80:128-n8:16:32:64-S128"
target triple = "x86_64-unknown-linux-gnu"

%class.anon.70 = type { i8 }

@_ZZN6google8protobuf12_GLOBAL__N_123GeneratedMessageFactory9singletonEvE8instance = internal global ptr null, align 8
@_ZGVZN6google8protobuf12_GLOBAL__N_123GeneratedMessageFactory9singletonEvE8instance = internal global i64 0, align 8

; Function Attrs: mustprogress nounwind uwtable
define internal noundef ptr @_ZZN6google8protobuf8internal16OnShutdownDeleteINS0_12_GLOBAL__N_123GeneratedMessageFactoryEEEPT_S6_ENKUlPKvE_cvPFvS8_EEv(ptr noundef nonnull align 1 dereferenceable(1) %this) #5 align 2 {
entry:
  %this.addr = alloca ptr, align 8
  store ptr %this, ptr %this.addr, align 8
  ret ptr @_ZZN6google8protobuf8internal16OnShutdownDeleteINS0_12_GLOBAL__N_123GeneratedMessageFactoryEEEPT_S6_ENUlPKvE_8__invokeES8_
}

; Function Attrs: mustprogress uwtable
define internal noundef ptr @_ZN6google8protobuf8internal16OnShutdownDeleteINS0_12_GLOBAL__N_123GeneratedMessageFactoryEEEPT_S6_(ptr noundef %p) #4 {
entry:
  %p.addr = alloca ptr, align 8
  %ref.tmp = alloca %class.anon.70, align 1
  store ptr %p, ptr %p.addr, align 8
  %call = call noundef ptr @_ZZN6google8protobuf8internal16OnShutdownDeleteINS0_12_GLOBAL__N_123GeneratedMessageFactoryEEEPT_S6_ENKUlPKvE_cvPFvS8_EEv(ptr noundef nonnull align 1 dereferenceable(1) %ref.tmp) #3
  %0 = load ptr, ptr %p.addr, align 8
  call void @_ZN6google8protobuf8internal13OnShutdownRunEPFvPKvES3_(ptr noundef %call, ptr noundef %0)
  %1 = load ptr, ptr %p.addr, align 8
  ret ptr %1
}

; Function Attrs: mustprogress uwtable
define internal noundef ptr @_ZN6google8protobuf12_GLOBAL__N_123GeneratedMessageFactory9singletonEv() #4 align 2 personality ptr @__gxx_personality_v0 {
entry:
  %exn.slot = alloca ptr, align 8
  %ehselector.slot = alloca i32, align 4
  %0 = load atomic i8, ptr @_ZGVZN6google8protobuf12_GLOBAL__N_123GeneratedMessageFactory9singletonEvE8instance acquire, align 8
  %guard.uninitialized = icmp eq i8 %0, 0
  br i1 %guard.uninitialized, label %init.check, label %init.end, !prof !6

init.check:                                       ; preds = %entry
  %1 = call i32 @__cxa_guard_acquire(ptr @_ZGVZN6google8protobuf12_GLOBAL__N_123GeneratedMessageFactory9singletonEvE8instance) #3
  %tobool = icmp ne i32 %1, 0
  br i1 %tobool, label %init, label %init.end

init:                                             ; preds = %init.check
  %call = invoke noalias noundef nonnull ptr @_Znwm(i64 noundef 144) #25
          to label %invoke.cont unwind label %lpad

invoke.cont:                                      ; preds = %init
  invoke void @_ZN6google8protobuf12_GLOBAL__N_123GeneratedMessageFactoryC2Ev(ptr noundef nonnull align 8 dereferenceable(144) %call)
          to label %invoke.cont2 unwind label %lpad1

invoke.cont2:                                     ; preds = %invoke.cont
  %call4 = invoke noundef ptr @_ZN6google8protobuf8internal16OnShutdownDeleteINS0_12_GLOBAL__N_123GeneratedMessageFactoryEEEPT_S6_(ptr noundef %call)
          to label %invoke.cont3 unwind label %lpad

invoke.cont3:                                     ; preds = %invoke.cont2
  store ptr %call4, ptr @_ZZN6google8protobuf12_GLOBAL__N_123GeneratedMessageFactory9singletonEvE8instance, align 8
  call void @__cxa_guard_release(ptr @_ZGVZN6google8protobuf12_GLOBAL__N_123GeneratedMessageFactory9singletonEvE8instance) #3
  br label %init.end

init.end:                                         ; preds = %invoke.cont3, %init.check, %entry
  %2 = load ptr, ptr @_ZZN6google8protobuf12_GLOBAL__N_123GeneratedMessageFactory9singletonEvE8instance, align 8
  ret ptr %2

lpad:                                             ; preds = %invoke.cont2, %init
  %3 = landingpad { ptr, i32 }
          cleanup
  %4 = extractvalue { ptr, i32 } %3, 0
  store ptr %4, ptr %exn.slot, align 8
  %5 = extractvalue { ptr, i32 } %3, 1
  store i32 %5, ptr %ehselector.slot, align 4
  br label %ehcleanup

lpad1:                                            ; preds = %invoke.cont
  %6 = landingpad { ptr, i32 }
          cleanup
  %7 = extractvalue { ptr, i32 } %6, 0
  store ptr %7, ptr %exn.slot, align 8
  %8 = extractvalue { ptr, i32 } %6, 1
  store i32 %8, ptr %ehselector.slot, align 4
  call void @_ZdlPv(ptr noundef %call) #20
  br label %ehcleanup

ehcleanup:                                        ; preds = %lpad1, %lpad
  call void @__cxa_guard_abort(ptr @_ZGVZN6google8protobuf12_GLOBAL__N_123GeneratedMessageFactory9singletonEvE8instance) #3
  br label %eh.resume

eh.resume:                                        ; preds = %ehcleanup
  %exn = load ptr, ptr %exn.slot, align 8
  %sel = load i32, ptr %ehselector.slot, align 4
  %lpad.val = insertvalue { ptr, i32 } poison, ptr %exn, 0
  %lpad.val5 = insertvalue { ptr, i32 } %lpad.val, i32 %sel, 1
  resume { ptr, i32 } %lpad.val5
}