; Function Attrs: mustprogress uwtable
define internal fastcc noundef ptr @_ZN6google8protobuf12_GLOBAL__N_123GeneratedMessageFactory9singletonEv() unnamed_addr #3 align 2 personality ptr @__gxx_personality_v0 {
entry:
  %0 = load atomic i8, ptr @_ZGVZN6google8protobuf12_GLOBAL__N_123GeneratedMessageFactory9singletonEvE8instance acquire, align 8
  %guard.uninitialized = icmp eq i8 %0, 0
  br i1 %guard.uninitialized, label %init.check, label %init.end, !prof !27

init.check:                                       ; preds = %entry
  %1 = tail call i32 @__cxa_guard_acquire(ptr nonnull @_ZGVZN6google8protobuf12_GLOBAL__N_123GeneratedMessageFactory9singletonEvE8instance) #29
  %tobool.not = icmp eq i32 %1, 0
  br i1 %tobool.not, label %init.end, label %init

init:                                             ; preds = %init.check
  %call = invoke noalias noundef nonnull dereferenceable(144) ptr @_Znwm(i64 noundef 144) #26
          to label %invoke.cont unwind label %lpad

invoke.cont:                                      ; preds = %init
  invoke fastcc void @_ZN6google8protobuf12_GLOBAL__N_123GeneratedMessageFactoryC2Ev(ptr noundef nonnull align 8 dereferenceable(144) %call)
          to label %invoke.cont2 unwind label %lpad1

invoke.cont2:                                     ; preds = %invoke.cont
  invoke void @_ZN6google8protobuf8internal13OnShutdownRunEPFvPKvES3_(ptr noundef nonnull @_ZZN6google8protobuf8internal16OnShutdownDeleteINS0_12_GLOBAL__N_123GeneratedMessageFactoryEEEPT_S6_ENUlPKvE_8__invokeES8_, ptr noundef nonnull %call)
          to label %invoke.cont3 unwind label %lpad

invoke.cont3:                                     ; preds = %invoke.cont2
  store ptr %call, ptr @_ZZN6google8protobuf12_GLOBAL__N_123GeneratedMessageFactory9singletonEvE8instance, align 8
  tail call void @__cxa_guard_release(ptr nonnull @_ZGVZN6google8protobuf12_GLOBAL__N_123GeneratedMessageFactory9singletonEvE8instance) #29
  br label %init.end

init.end:                                         ; preds = %invoke.cont3, %init.check, %entry
  %2 = load ptr, ptr @_ZZN6google8protobuf12_GLOBAL__N_123GeneratedMessageFactory9singletonEvE8instance, align 8
  ret ptr %2

lpad:                                             ; preds = %invoke.cont2, %init
  %3 = landingpad { ptr, i32 }
          cleanup
  br label %ehcleanup

lpad1:                                            ; preds = %invoke.cont
  %4 = landingpad { ptr, i32 }
          cleanup
  tail call void @_ZdlPv(ptr noundef nonnull %call) #27
  br label %ehcleanup

ehcleanup:                                        ; preds = %lpad1, %lpad
  %.pn = phi { ptr, i32 } [ %3, %lpad ], [ %4, %lpad1 ]
  tail call void @__cxa_guard_abort(ptr nonnull @_ZGVZN6google8protobuf12_GLOBAL__N_123GeneratedMessageFactory9singletonEvE8instance) #29
  resume { ptr, i32 } %.pn
}